; Function Attrs: nounwind uwtable
define hidden ptr @ckByteArrayToJByteArray(ptr noundef %0, ptr noundef %1, i64 noundef %2) local_unnamed_addr #0 {
  %4 = load ptr, ptr %0, align 8
  %5 = getelementptr inbounds i8, ptr %4, i64 1408
  %6 = load ptr, ptr %5, align 8
  %7 = trunc i64 %2 to i32
  %8 = tail call ptr %6(ptr noundef nonnull %0, i32 noundef %7) #15
  %.not = icmp eq ptr %8, null
  br i1 %.not, label %13, label %9

9:                                                ; preds = %3
  %10 = load ptr, ptr %0, align 8
  %11 = getelementptr inbounds i8, ptr %10, i64 1664
  %12 = load ptr, ptr %11, align 8
  tail call void %12(ptr noundef nonnull %0, ptr noundef nonnull %8, i32 noundef 0, i32 noundef %7, ptr noundef %1) #15
  br label %13

13:                                               ; preds = %9, %3
  ret ptr %8
}